; Function Attrs: nounwind uwtable
define internal fastcc noalias nonnull ptr @_init_l___private_Lean_Elab_PreDefinition_WF_GuessLex_0__Lean_Elab_WF_GuessLex_reprGuessLexRel____x40_Lean_Elab_PreDefinition_WF_GuessLex___hyg_4511____closed__13() unnamed_addr #1 {
  %1 = load ptr, ptr @l___private_Lean_Elab_PreDefinition_WF_GuessLex_0__Lean_Elab_WF_GuessLex_reprGuessLexRel____x40_Lean_Elab_PreDefinition_WF_GuessLex___hyg_4511____closed__6, align 8, !tbaa !4
  %2 = load ptr, ptr @l___private_Lean_Elab_PreDefinition_WF_GuessLex_0__Lean_Elab_WF_GuessLex_reprGuessLexRel____x40_Lean_Elab_PreDefinition_WF_GuessLex___hyg_4511____closed__10, align 8, !tbaa !4
  tail call void @lean_inc_heartbeat() #8
  %3 = tail call noalias ptr @mi_malloc_small(i64 noundef 24) #8
  %4 = icmp eq ptr %3, null
  br i1 %4, label %5, label %lean_alloc_ctor.exit

5:                                                ; preds = %0
  tail call void @lean_internal_panic_out_of_memory() #9
  unreachable

lean_alloc_ctor.exit:                             ; preds = %0
  %6 = getelementptr inbounds nuw i8, ptr %3, i64 4
  store i32 1, ptr %3, align 4, !tbaa !8
  store i32 67239960, ptr %6, align 4
  %7 = getelementptr inbounds nuw i8, ptr %3, i64 8
  store ptr %1, ptr %7, align 8, !tbaa !4
  %8 = getelementptr inbounds nuw i8, ptr %3, i64 16
  store ptr %2, ptr %8, align 8, !tbaa !4
  ret ptr %3
}